(lp0
(lp1
(lp2
(lp3
(lp4
F0.0936880111694336
aa(lp5
F0.06013965606689453
aaa(lp6
(lp7
F0.5822057723999023
aa(lp8
F1.9999990463256836
aa(lp9
F0.3095102310180664
aF0.1536855697631836
aF0.2047109603881836
aF0.6745805740356445
aF0.8140974044799805
aF0.05682849884033203
aF0.5170698165893555
aF0.07762813568115234
aF0.2747831344604492
aF0.18848133087158203
aF0.1904287338256836
aF1.686711311340332
aF0.7073202133178711
aF0.060645103454589844
aF0.4573812484741211
aF0.0836782455444336
aaa(lp10
(lp11
F0.11771106719970703
aF0.1061258316040039
aa(lp12
F0.1139841079711914
aF1.9621381759643555
aF0.1311807632446289
aF0.6006937026977539
aF0.10038471221923828
aF0.6445627212524414
aF0.11626529693603516
aF1.116511344909668
aa(lp13
F0.1044931411743164
aF0.0675058364868164
aF0.1147623062133789
aF0.0719003677368164
aaa(lp14
(lp15
F1.9999990463256836
aF1.9999990463256836
aaa(lp16
(lp17
F0.9218759536743164
aa(lp18
F0.04682445526123047
aaa(lp19
(lp20
F0.0928964614868164
aaa(lp21
(lp22
F0.21760845184326172
aa(lp23
F0.2146596908569336
aa(lp24
F0.0988454818725586
aaa(lp25
(lp26
F0.05180072784423828
aaa(lp27
(lp28
F0.05639934539794922
aa(lp29
F0.0694723129272461
aaa(lp30
(lp31
F1.9999990463256836
aa(lp32
F0.026368141174316406
aa(lp33
F0.043061256408691406
aa(lp34
F0.043091773986816406
aaa(lp35
(lp36
F1.9999990463256836
aaa(lp37
(lp38
F1.7150945663452148
aaa(lp39
(lp40
F0.29638195037841797
aaa(lp41
(lp42
F1.9999990463256836
aa(lp43
F1.9999990463256836
aa(lp44
F1.9999990463256836
aa(lp45
F1.9999990463256836
aa(lp46
F1.9999990463256836
aa(lp47
F1.9999990463256836
aaa(lp48
(lp49
F0.2421865463256836
aa(lp50
F0.3287992477416992
aa(lp51
F0.3261137008666992
aaaa(lp52
(lp53
(lp54
F0.08977603912353516
aa(lp55
F0.059021949768066406
aaa(lp56
(lp57
F0.5788545608520508
aa(lp58
F1.9999990463256836
aa(lp59
F0.3214845657348633
aF0.1137704849243164
aF0.2006692886352539
aF0.4038095474243164
aF0.6640443801879883
aF0.046599388122558594
aF0.4317140579223633
aF0.06449031829833984
aF0.2843790054321289
aF0.1359395980834961
aF0.18677043914794922
aF0.9765634536743164
aF0.5876779556274414
aF0.050011634826660156
aF0.4024991989135742
aF0.0707387924194336
aaa(lp60
(lp61
F0.11479473114013672
aF0.10273075103759766
aa(lp62
F0.11163043975830078
aF1.9999990463256836
aF0.13166522979736328
aF0.43976688385009766
aF0.09924602508544922
aF0.608006477355957
aF0.1117258071899414
aF0.9971685409545898
aa(lp63
F0.0852041244506836
aF0.053084373474121094
aF0.09415531158447266
aF0.05634593963623047
aaa(lp64
(lp65
F1.9999990463256836
aF1.9999990463256836
aaa(lp66
(lp67
F0.9804677963256836
aa(lp68
F0.04674053192138672
aaa(lp69
(lp70
F0.07697010040283203
aaa(lp71
(lp72
F0.22252941131591797
aa(lp73
F0.21435260772705078
aa(lp74
F0.10103130340576172
aaa(lp75
(lp76
F0.042723655700683594
aaa(lp77
(lp78
F0.04990100860595703
aa(lp79
F0.06362628936767578
aaa(lp80
(lp81
F1.9999990463256836
aa(lp82
F0.018210411071777344
aa(lp83
F0.02824687957763672
aa(lp84
F0.03076457977294922
aaa(lp85
(lp86
F1.9999990463256836
aaa(lp87
(lp88
F1.9390840530395508
aaa(lp89
(lp90
F0.22623538970947266
aaa(lp91
(lp92
F1.9999990463256836
aa(lp93
F1.9999990463256836
aa(lp94
F1.9999990463256836
aa(lp95
F1.9999990463256836
aa(lp96
F1.9999990463256836
aa(lp97
F1.9999990463256836
aaa(lp98
(lp99
F0.19290447235107422
aa(lp100
F0.33089351654052734
aa(lp101
F0.32703685760498047
aaaaa(lp102
(lp103
(lp104
(lp105
S'offma_Ca_HVA'
p106
aS'offmb_Ca_HVA'
p107
aa(lp108
S'offha_Ca_HVA'
p109
aS'offhb_Ca_HVA'
p110
aaaa(lp111
(lp112
(lp113
g106
ag107
aa(lp114
g109
ag110
aaaa(lp115
(lp116
(lp117
g109
ag110
aa(lp118
S'sloha_Ca_HVA'
p119
aS'slohb_Ca_HVA'
p120
aaaa(lp121
(lp122
(lp123
S'tauha_Ca_HVA'
p124
aS'tauhb_Ca_HVA'
p125
aaaa(lp126
(lp127
(lp128
g106
ag107
aa(lp129
g109
ag110
aa(lp130
S'tauma_Ca_HVA'
p131
aS'taumb_Ca_HVA'
p132
aa(lp133
g124
ag125
aaag127
ag127
ag127
ag127
ag127
ag127
ag127
ag127
ag127
ag127
ag127
ag127
ag127
ag127
ag127
aa(lp134
(lp135
(lp136
g106
ag107
aa(lp137
S'sloma_Ca_HVA'
p138
aS'slomb_Ca_HVA'
p139
aa(lp140
g109
ag110
aa(lp141
g119
ag120
aa(lp142
g124
ag125
aaag135
aa(lp143
(lp144
(lp145
g106
ag107
aa(lp146
g138
ag139
aa(lp147
g109
ag110
aa(lp148
g119
ag120
aa(lp149
g124
ag125
aaag144
ag144
ag144
ag144
ag144
ag144
ag144
aa(lp150
(lp151
(lp152
g106
ag107
aa(lp153
g138
ag139
aa(lp154
g124
ag125
aaag151
ag151
ag151
aa(lp155
(lp156
S'offma_Ca_LVAst'
p157
aS'offha_Ca_LVAst'
p158
a(lp159
S'taummin_Ca_LVAst'
p160
aS'taumdiff_Ca_LVAst'
p161
aa(lp162
S'tauhmin_Ca_LVAst'
p163
aS'tauhdiff_Ca_LVAst'
p164
aaag156
aa(lp165
(lp166
(lp167
g131
ag132
aaaa(lp168
(lp169
(lp170
g106
ag107
aa(lp171
g138
ag139
aa(lp172
g131
ag132
aaaa(lp173
(lp174
S'gamma_CaDynamics_E2'
p175
aaa(lp176
(lp177
S'decay_CaDynamics_E2'
p178
aaa(lp179
(lp180
g178
aS'minCai_CaDynamics_E2'
p181
aaa(lp182
(lp183
g178
aaa(lp184
(lp185
g175
aaa(lp186
(lp187
S'offm_NaTa_t'
p188
aS'offh_NaTa_t'
p189
aS'slom_NaTa_t'
p190
aS'sloh_NaTa_t'
p191
aaa(lp192
(lp193
g188
ag189
ag190
ag191
aaa(lp194
(lp195
(lp196
S'offh_Nap_Et2'
p197
aS'offha_Nap_Et2'
p198
aS'offhb_Nap_Et2'
p199
aaaa(lp200
(lp201
(lp202
g197
ag198
ag199
aaS'sloh_Nap_Et2'
p203
ag188
ag189
ag191
aaa(lp204
(lp205
g188
ag189
aaa(lp206
(lp207
g188
ag189
aaa(lp208
(lp209
(lp210
S'taummin_K_Pst'
p211
aS'taumdiff1_K_Pst'
p212
aS'taumdiff2_K_Pst'
p213
aa(lp214
S'tauhmean_K_Pst'
p215
aS'tauhdiff1_K_Pst'
p216
aS'tauhdiff2_K_Pst'
p217
aaS'sloh_K_Pst'
p218
aaa(lp219
(lp220
S'offc_SK_E2'
p221
aS'sloc_SK_E2'
p222
aaa(lp223
(lp224
(lp225
S'offma_Ih'
p226
aS'offmb_Ih'
p227
aa(lp228
S'sloma_Ih'
p229
aS'slomb_Ih'
p230
aaaa(lp231
(lp232
S'offm_K_Tst'
p233
aS'offh_K_Tst'
p234
aS'slom_K_Tst'
p235
aS'sloh_K_Tst'
p236
a(lp237
S'taummin_K_Tst'
p238
aS'taumdiff_K_Tst'
p239
aa(lp240
S'tauhmin_K_Tst'
p241
aS'tauhdiff_K_Tst'
p242
aaaa(lp243
(lp244
g233
ag234
ag235
ag236
a(lp245
g238
ag239
aa(lp246
g241
ag242
aaaa(lp247
(lp248
g233
ag234
ag235
ag236
a(lp249
g238
ag239
aa(lp250
g241
ag242
aaaa(lp251
(lp252
g233
ag234
ag235
ag236
a(lp253
g238
ag239
aa(lp254
g241
ag242
aaaa(lp255
(lp256
g233
ag234
ag235
ag236
a(lp257
g238
ag239
aa(lp258
g241
ag242
aaaa(lp259
(lp260
g233
ag234
ag235
ag236
a(lp261
g238
ag239
aa(lp262
g241
ag242
aaaa(lp263
(lp264
(lp265
g106
ag107
aa(lp266
g109
ag110
aa(lp267
g131
ag132
aa(lp268
g124
ag125
aaaa(lp269
(lp270
(lp271
g106
ag107
aa(lp272
g109
ag110
aa(lp273
g131
ag132
aa(lp274
g124
ag125
aaaa(lp275
(lp276
(lp277
g106
ag107
aa(lp278
g109
ag110
aa(lp279
g131
ag132
aa(lp280
g124
ag125
aaaaa(lp281
(lp282
(lp283
F-25.9
aF-27.0
aaa(lp284
(lp285
F-37.3
aF-30.0
aaa(lp286
(lp287
F-5.2
aF0.69
aaa(lp288
(lp289
F1.7
aaa(lp290
(lp291
F-4.9
aF-5.1
aF0.6
aF0.6
aa(lp292
F4.9
aF-5.1
aF0.6
aF0.6
aa(lp293
F-4.9
aF5.1
aF0.6
aF0.6
aa(lp294
F4.9
aF5.1
aF0.6
aF0.6
aa(lp295
F-4.9
aF-5.1
aF1.68
aF0.6
aa(lp296
F4.9
aF-5.1
aF1.68
aF0.6
aa(lp297
F-4.9
aF5.1
aF1.68
aF0.6
aa(lp298
F4.9
aF5.1
aF1.68
aF0.6
aa(lp299
F-4.9
aF-5.1
aF0.6
aF1.66
aa(lp300
F4.9
aF-5.1
aF0.6
aF1.66
aa(lp301
F-4.9
aF5.1
aF0.6
aF1.66
aa(lp302
F4.9
aF5.1
aF0.6
aF1.66
aa(lp303
F-4.9
aF-5.1
aF1.68
aF1.66
aa(lp304
F4.9
aF-5.1
aF1.68
aF1.66
aa(lp305
F-4.9
aF5.1
aF1.68
aF1.66
aa(lp306
F4.9
aF5.1
aF1.68
aF1.66
aaa(lp307
(lp308
F-10.9
aF0.73
aF-3.0
aF0.81
aF1.25
aa(lp309
F-10.9
aF0.73
aF3.5
aF0.81
aF1.25
aaa(lp310
(lp311
F-10.6
aF0.8
aF-5.3
aF0.66
aF0.72
aa(lp312
F3.4
aF0.8
aF-5.3
aF0.66
aF0.72
aa(lp313
F-10.6
aF1.12
aF-5.3
aF0.66
aF0.72
aa(lp314
F3.4
aF1.12
aF-5.3
aF0.66
aF0.72
aa(lp315
F-10.6
aF0.8
aF1.2
aF0.66
aF0.72
aa(lp316
F3.4
aF0.8
aF1.2
aF0.66
aF0.72
aa(lp317
F-10.6
aF1.12
aF1.2
aF0.66
aF0.72
aa(lp318
F3.4
aF1.12
aF1.2
aF0.66
aF0.72
aaa(lp319
(lp320
F6.6
aF0.75
aF0.5
aa(lp321
F6.6
aF1.19
aF0.5
aa(lp322
F6.6
aF0.75
aF1.12
aa(lp323
F6.6
aF1.19
aF1.12
aaa(lp324
(lp325
F1.3
aF1.6
aF0.87
aF0.8
aa(lp326
F1.3
aF1.6
aF1.45
aF0.8
aaa(lp327
(lp328
F0.67
aaa(lp329
(lp330
F-30.02
aF0.62
aF0.49
aaa(lp331
(lp332
F0.6
aaa(lp333
(lp334
F1.97
aaa(lp335
(lp336
F1.5
aF1.4
aaa(lp337
(lp338
F4.45
aaa(lp339
(lp340
F0.4
aaa(lp341
(lp342
F-0.3
aI5
aF1.15
aF1.23
aaa(lp343
(lp344
F2.8
aF9.6
aF0.984
aF1.042
aaa(lp345
(lp346
F6.8
aaa(lp347
(lp348
F3.5
aF0.55
aF-7.1
aF17.0
aF0.69
aaa(lp349
(lp350
F-9.1
aF3.1
aaa(lp351
(lp352
F-7.6
aF4.3
aaa(lp353
(lp354
F2.0
aF2.5
aF0.5
aaa(lp355
(lp356
F0.86
aF1.24
aaa(lp357
(lp358
F-26.5
aF0.64
aaa(lp359
(lp360
I5
aI3
aF1.11
aF0.86
aF0.5
aF0.53
aaa(lp361
(lp362
I1
aI-6
aF1.22
aF1.0
aF0.89
aF1.13
aaa(lp363
(lp364
I6
aI-8
aF1.33
aF1.0
aF0.5
aF0.87
aaa(lp365
(lp366
I-28
aI-27
aF1.11
aF0.71
aF1.13
aF2.27
aaa(lp367
(lp368
I14
aI-21
aF2.0
aF1.0
aF0.39
aF1.2
aaa(lp369
(lp370
I-13
aI-13
aF1.33
aF0.71
aF0.95
aF5.13
aaa(lp371
(lp372
F3.0
aF3.48
aF1.01
aF0.89
aaa(lp373
(lp374
F-1.11
aF5.14
aF0.6
aF1.48
aaa(lp375
(lp376
F-1.88
aF2.69
aF0.6
aF1.35
aaaa(lp377
(lp378
(lp379
(lp380
g105
a(lp381
F-25.9
aaa(lp382
g108
a(lp383
F-27.0
aaaa(lp384
(lp385
g113
a(lp386
F-37.3
aaa(lp387
g114
a(lp388
F-30.0
aaaaa(lp389
(lp390
(lp391
g117
a(lp392
F-5.2
aaa(lp393
g118
a(lp394
F0.69
aaaa(lp395
(lp396
g123
a(lp397
F1.7
aaaa(lp398
(lp399
g128
a(lp400
F-4.9
aF4.9
aaa(lp401
g129
a(lp402
F-5.1
aF5.1
aaa(lp403
g130
a(lp404
F0.6
aF1.68
aaa(lp405
g133
a(lp406
F0.6
aF1.66
aaaaa(lp407
(lp408
(lp409
g136
a(lp410
F-10.9
aaa(lp411
g137
a(lp412
F0.73
aaa(lp413
g140
a(lp414
F-3.0
aF3.5
aaa(lp415
g141
a(lp416
F0.81
aaa(lp417
g142
a(lp418
F1.25
aaaa(lp419
(lp420
g145
a(lp421
F-10.6
aF3.4
aaa(lp422
g146
a(lp423
F0.8
aF1.12
aaa(lp424
g147
a(lp425
F-5.3
aF1.2
aaa(lp426
g148
a(lp427
F0.66
aaa(lp428
g149
a(lp429
F0.72
aaaa(lp430
(lp431
g152
a(lp432
F6.6
aaa(lp433
g153
a(lp434
F0.75
aF1.19
aaa(lp435
g154
a(lp436
F0.5
aF1.12
aaaaa(lp437
(lp438
(lp439
g157
a(lp440
F1.3
aaa(lp441
g158
a(lp442
F1.6
aaa(lp443
g159
a(lp444
F0.87
aF1.45
aaa(lp445
g162
a(lp446
F0.8
aaaaa(lp447
(lp448
(lp449
g167
a(lp450
F0.67
aaaa(lp451
(lp452
g170
a(lp453
F-30.02
aaa(lp454
g171
a(lp455
F0.62
aaa(lp456
g172
a(lp457
F0.49
aaaaa(lp458
(lp459
(lp460
g175
a(lp461
F0.6
aaaaa(lp462
(lp463
(lp464
g178
a(lp465
F1.97
aaaa(lp466
(lp467
g178
a(lp468
F1.5
aaa(lp469
g181
a(lp470
F1.4
aaaa(lp471
(lp472
g178
a(lp473
F4.45
aaaaa(lp474
(lp475
(lp476
g175
a(lp477
F0.4
aaaaa(lp478
(lp479
(lp480
g188
a(lp481
F-0.3
aaa(lp482
g189
a(lp483
I5
aaa(lp484
g190
a(lp485
F1.15
aaa(lp486
g191
a(lp487
F1.23
aaaa(lp488
(lp489
g188
a(lp490
F2.8
aaa(lp491
g189
a(lp492
F9.6
aaa(lp493
g190
a(lp494
F0.984
aaa(lp495
g191
a(lp496
F1.042
aaaaa(lp497
(lp498
(lp499
g196
a(lp500
F6.8
aaaa(lp501
(lp502
g202
a(lp503
F3.5
aaa(lp504
g203
a(lp505
F0.55
aaa(lp506
g188
a(lp507
F-7.1
aaa(lp508
g189
a(lp509
F17.0
aaa(lp510
g191
a(lp511
F0.69
aaaa(lp512
(lp513
g188
a(lp514
F-9.1
aaa(lp515
g189
a(lp516
F3.1
aaaa(lp517
(lp518
g188
a(lp519
F-7.6
aaa(lp520
g189
a(lp521
F4.3
aaaaa(lp522
(lp523
(lp524
g210
a(lp525
F2.0
aaa(lp526
g214
a(lp527
F2.5
aaa(lp528
g218
a(lp529
F0.5
aaaaa(lp530
(lp531
(lp532
g221
a(lp533
F0.86
aaa(lp534
g222
a(lp535
F1.24
aaaaa(lp536
(lp537
(lp538
g225
a(lp539
F-26.5
aaa(lp540
g228
a(lp541
F0.64
aaaaa(lp542
(lp543
(lp544
g233
a(lp545
I5
aaa(lp546
g234
a(lp547
I3
aaa(lp548
g235
a(lp549
F1.11
aaa(lp550
g236
a(lp551
F0.86
aaa(lp552
g237
a(lp553
F0.5
aaa(lp554
g240
a(lp555
F0.53
aaaa(lp556
(lp557
g233
a(lp558
I1
aaa(lp559
g234
a(lp560
I-6
aaa(lp561
g235
a(lp562
F1.22
aaa(lp563
g236
a(lp564
F1.0
aaa(lp565
g245
a(lp566
F0.89
aaa(lp567
g246
a(lp568
F1.13
aaaa(lp569
(lp570
g233
a(lp571
I6
aaa(lp572
g234
a(lp573
I-8
aaa(lp574
g235
a(lp575
F1.33
aaa(lp576
g236
a(lp577
F1.0
aaa(lp578
g249
a(lp579
F0.5
aaa(lp580
g250
a(lp581
F0.87
aaaa(lp582
(lp583
g233
a(lp584
I-28
aaa(lp585
g234
a(lp586
I-27
aaa(lp587
g235
a(lp588
F1.11
aaa(lp589
g236
a(lp590
F0.71
aaa(lp591
g253
a(lp592
F1.13
aaa(lp593
g254
a(lp594
F2.27
aaaa(lp595
(lp596
g233
a(lp597
I14
aaa(lp598
g234
a(lp599
I-21
aaa(lp600
g235
a(lp601
F2.0
aaa(lp602
g236
a(lp603
F1.0
aaa(lp604
g257
a(lp605
F0.39
aaa(lp606
g258
a(lp607
F1.2
aaaa(lp608
(lp609
g233
a(lp610
I-13
aaa(lp611
g234
a(lp612
I-13
aaa(lp613
g235
a(lp614
F1.33
aaa(lp615
g236
a(lp616
F0.71
aaa(lp617
g261
a(lp618
F0.95
aaa(lp619
g262
a(lp620
F5.13
aaaaa(lp621
(lp622
(lp623
g265
a(lp624
F3.0
aaa(lp625
g266
a(lp626
F3.48
aaa(lp627
g267
a(lp628
F1.01
aaa(lp629
g268
a(lp630
F0.89
aaaa(lp631
(lp632
g271
a(lp633
F-1.11
aaa(lp634
g272
a(lp635
F5.14
aaa(lp636
g273
a(lp637
F0.6
aaa(lp638
g274
a(lp639
F1.48
aaaa(lp640
(lp641
g277
a(lp642
F-1.88
aaa(lp643
g278
a(lp644
F2.69
aaa(lp645
g279
a(lp646
F0.6
aaa(lp647
g280
a(lp648
F1.35
aaaaaa.